; Function Attrs: mustprogress nounwind uwtable
define dso_local void @_ZN4node9TimerWrap9OnTimeoutEP10uv_timer_s(ptr noundef %timer) #3 align 2 {
entry:
  %0 = ptrtoint ptr %timer to i64
  %sub.i.i = add i64 %0, -48
  %1 = inttoptr i64 %sub.i.i to ptr
  %_M_manager.i.i = getelementptr inbounds i8, ptr %1, i64 32
  %2 = load ptr, ptr %_M_manager.i.i, align 8
  %tobool.not.i.i = icmp eq ptr %2, null
  br i1 %tobool.not.i.i, label %if.then.i, label %_ZNKSt8functionIFvvEEclEv.exit

if.then.i:                                        ; preds = %entry
  tail call void @_ZSt25__throw_bad_function_callv() #16
  unreachable

_ZNKSt8functionIFvvEEclEv.exit:                   ; preds = %entry
  %fn_ = getelementptr inbounds i8, ptr %1, i64 16
  %_M_invoker.i = getelementptr inbounds i8, ptr %1, i64 40
  %3 = load ptr, ptr %_M_invoker.i, align 8
  tail call void %3(ptr noundef nonnull align 8 dereferenceable(16) %fn_) #13
  ret void
}